target datalayout = "e-m:e-p270:32:32-p271:32:32-p272:64:64-i64:64-i128:128-f80:128-n8:16:32:64-S128"
target triple = "x86_64-pc-linux-gnu"

; Function Attrs: nounwind uwtable
define internal zeroext i8 @interpolate_nearest(float noundef %0, float noundef %1, ptr noundef %2, i32 noundef %3, i32 noundef %4, i32 noundef %5, i8 noundef zeroext %6) #0 {
  %8 = alloca float, align 4
  %9 = alloca float, align 4
  %10 = alloca ptr, align 8
  %11 = alloca i32, align 4
  %12 = alloca i32, align 4
  %13 = alloca i32, align 4
  %14 = alloca i8, align 1
  store float %0, ptr %8, align 4, !tbaa !4
  store float %1, ptr %9, align 4, !tbaa !4
  store ptr %2, ptr %10, align 8, !tbaa !11
  store i32 %3, ptr %11, align 4, !tbaa !13
  store i32 %4, ptr %12, align 4, !tbaa !13
  store i32 %5, ptr %13, align 4, !tbaa !13
  store i8 %6, ptr %14, align 1, !tbaa !15
  %15 = load float, ptr %8, align 4, !tbaa !4
  %16 = fpext nsz float %15 to double
  %17 = fadd nsz double %16, 5.000000e-01
  %18 = fptosi double %17 to i32
  %19 = icmp slt i32 %18, 0
  br i1 %19, label %26, label %20

20:                                               ; preds = %7
  %21 = load float, ptr %9, align 4, !tbaa !4
  %22 = fpext nsz float %21 to double
  %23 = fadd nsz double %22, 5.000000e-01
  %24 = fptosi double %23 to i32
  %25 = icmp slt i32 %24, 0
  br i1 %25, label %26, label %29

26:                                               ; preds = %20, %7
  %27 = load i8, ptr %14, align 1, !tbaa !15
  %28 = zext i8 %27 to i32
  br label %65

29:                                               ; preds = %20
  %30 = load float, ptr %8, align 4, !tbaa !4
  %31 = fpext nsz float %30 to double
  %32 = fadd nsz double %31, 5.000000e-01
  %33 = fptosi double %32 to i32
  %34 = load i32, ptr %11, align 4, !tbaa !13
  %35 = icmp sge i32 %33, %34
  br i1 %35, label %43, label %36

36:                                               ; preds = %29
  %37 = load float, ptr %9, align 4, !tbaa !4
  %38 = fpext nsz float %37 to double
  %39 = fadd nsz double %38, 5.000000e-01
  %40 = fptosi double %39 to i32
  %41 = load i32, ptr %12, align 4, !tbaa !13
  %42 = icmp sge i32 %40, %41
  br i1 %42, label %43, label %46

43:                                               ; preds = %36, %29
  %44 = load i8, ptr %14, align 1, !tbaa !15
  %45 = zext i8 %44 to i32
  br label %63

46:                                               ; preds = %36
  %47 = load ptr, ptr %10, align 8, !tbaa !11
  %48 = load float, ptr %8, align 4, !tbaa !4
  %49 = fpext nsz float %48 to double
  %50 = fadd nsz double %49, 5.000000e-01
  %51 = fptosi double %50 to i32
  %52 = load float, ptr %9, align 4, !tbaa !4
  %53 = fpext nsz float %52 to double
  %54 = fadd nsz double %53, 5.000000e-01
  %55 = fptosi double %54 to i32
  %56 = load i32, ptr %13, align 4, !tbaa !13
  %57 = mul nsw i32 %55, %56
  %58 = add nsw i32 %51, %57
  %59 = sext i32 %58 to i64
  %60 = getelementptr inbounds i8, ptr %47, i64 %59
  %61 = load i8, ptr %60, align 1, !tbaa !15
  %62 = zext i8 %61 to i32
  br label %63

63:                                               ; preds = %46, %43
  %64 = phi i32 [ %45, %43 ], [ %62, %46 ]
  br label %65

65:                                               ; preds = %63, %26
  %66 = phi i32 [ %28, %26 ], [ %64, %63 ]
  %67 = trunc i32 %66 to i8
  ret i8 %67
}