; Function Attrs: mustprogress nofree norecurse nosync nounwind willreturn memory(argmem: read) uwtable
define internal zeroext i8 @interpolate_nearest(float noundef %0, float noundef %1, ptr noundef readonly captures(none) %2, i32 noundef %3, i32 noundef %4, i32 noundef %5, i8 noundef zeroext %6) unnamed_addr #3 {
  %8 = fpext nsz float %0 to double
  %9 = fadd nsz double %8, 5.000000e-01
  %10 = fptosi double %9 to i32
  %11 = icmp slt i32 %10, 0
  br i1 %11, label %24, label %12

12:                                               ; preds = %7
  %13 = fpext nsz float %1 to double
  %14 = fadd nsz double %13, 5.000000e-01
  %15 = fptosi double %14 to i32
  %16 = icmp slt i32 %15, 0
  br i1 %16, label %24, label %17

17:                                               ; preds = %12
  %.not = icmp sgt i32 %3, %10
  %.not12 = icmp sgt i32 %4, %15
  %or.cond = and i1 %.not, %.not12
  br i1 %or.cond, label %18, label %24

18:                                               ; preds = %17
  %19 = mul nsw i32 %5, %15
  %20 = add nsw i32 %19, %10
  %21 = sext i32 %20 to i64
  %22 = getelementptr inbounds i8, ptr %2, i64 %21
  %23 = load i8, ptr %22, align 1, !tbaa !10
  br label %24

24:                                               ; preds = %17, %7, %12, %18
  %.in = phi i8 [ %23, %18 ], [ %6, %12 ], [ %6, %7 ], [ %6, %17 ]
  ret i8 %.in
}